target datalayout = "e-m:e-p270:32:32-p271:32:32-p272:64:64-i64:64-i128:128-f80:128-n8:16:32:64-S128"
target triple = "x86_64-pc-linux-gnu"

%struct.AVChannelLayout = type { i32, i32, %union.anon.2, ptr }
%union.anon.2 = type { i64 }
%struct.AACDecContext = type { ptr, ptr, %struct.AACDecDSP, %struct.AACDecProc, ptr, i32, %struct.DynamicRangeControl, [4 x [64 x ptr]], [4 x [64 x ptr]], i32, i32, [8 x i8], %union.anon, %union.anon.0, ptr, ptr, ptr, ptr, ptr, ptr, ptr, ptr, ptr, ptr, ptr, ptr, ptr, ptr, ptr, ptr, ptr, ptr, %union.anon.1, i32, [64 x ptr], i32, i32, i32, [2 x %struct.OutputConfiguration], i32, i32, i32, i32, i32, i32, [8 x i8] }
%struct.AACDecDSP = type { ptr, ptr, ptr, ptr, ptr, ptr, ptr, ptr, ptr, ptr, ptr, ptr, ptr, ptr, ptr }
%struct.AACDecProc = type { ptr, ptr, ptr, ptr, ptr, ptr }
%struct.DynamicRangeControl = type { i32, [17 x i32], [17 x i32], [64 x i32], i32, i32, [17 x i32], i32 }
%union.anon = type { [1024 x i32] }
%union.anon.0 = type { [128 x i32] }
%union.anon.1 = type { ptr }
%struct.OutputConfiguration = type { %struct.MPEG4AudioConfig, [256 x [3 x i8]], i32, %struct.AVChannelLayout, i32, %struct.AACUSACConfig }
%struct.MPEG4AudioConfig = type { i32, i32, i32, i32, i32, i32, i32, i32, i32, i32, i32, i32 }
%struct.AACUSACConfig = type { i8, i16, i16, [64 x %struct.AACUsacElemConfig], i32, %struct.anon.6 }
%struct.AACUsacElemConfig = type { i32, i8, i8, %struct.anon, %struct.anon.4, %struct.anon.5 }
%struct.anon = type { i32, i8, %struct.anon.3 }
%struct.anon.3 = type { i8, i8, i8, i8, i8, i8, i8, i8 }
%struct.anon.4 = type { i8, i8, i8, i8, i8, i8, i8, i8, i8 }
%struct.anon.5 = type { i32, i8, i32, i32, ptr }
%struct.anon.6 = type { i8, i8, [64 x %struct.AACUSACLoudnessInfo], i8, i8, [64 x %struct.AACUSACLoudnessInfo] }
%struct.AACUSACLoudnessInfo = type <{ i16, %struct.anon.7, %struct.anon.8, i8, [16 x %struct.anon.9], i8 }>
%struct.anon.7 = type { i16 }
%struct.anon.8 = type { i32 }
%struct.anon.9 = type { i8, i8, i8 }
%struct.LongTermPrediction = type { i8, i16, %union.anon.10, [40 x i8] }
%union.anon.10 = type { i32 }
%struct.GetBitContext = type { ptr, ptr, i32, i32, i32 }

@ff_ltp_coef = external constant [8 x float], align 16

; Function Attrs: alwaysinline nounwind willreturn memory(none) uwtable
define internal i32 @av_bswap32(i32 noundef %0) #8 {
  %2 = alloca i32, align 4
  store i32 %0, ptr %2, align 4, !tbaa !11
  %3 = load i32, ptr %2, align 4, !tbaa !11
  %4 = shl i32 %3, 8
  %5 = and i32 %4, 65280
  %6 = load i32, ptr %2, align 4, !tbaa !11
  %7 = lshr i32 %6, 8
  %8 = and i32 %7, 255
  %9 = or i32 %5, %8
  %10 = shl i32 %9, 16
  %11 = load i32, ptr %2, align 4, !tbaa !11
  %12 = lshr i32 %11, 16
  %13 = shl i32 %12, 8
  %14 = and i32 %13, 65280
  %15 = load i32, ptr %2, align 4, !tbaa !11
  %16 = lshr i32 %15, 16
  %17 = lshr i32 %16, 8
  %18 = and i32 %17, 255
  %19 = or i32 %14, %18
  %20 = or i32 %10, %19
  ret i32 %20
}

; Function Attrs: inlinehint nounwind uwtable
define internal i32 @get_bits1(ptr noundef %0) #6 {
  %2 = alloca ptr, align 8
  %3 = alloca i32, align 4
  %4 = alloca i8, align 1
  store ptr %0, ptr %2, align 8, !tbaa !111
  call void @llvm.lifetime.start.p0(i64 4, ptr %3) #12
  %5 = load ptr, ptr %2, align 8, !tbaa !111
  %6 = getelementptr inbounds nuw %struct.GetBitContext, ptr %5, i32 0, i32 2
  %7 = load i32, ptr %6, align 8, !tbaa !122
  store i32 %7, ptr %3, align 4, !tbaa !11
  call void @llvm.lifetime.start.p0(i64 1, ptr %4) #12
  %8 = load ptr, ptr %2, align 8, !tbaa !111
  %9 = getelementptr inbounds nuw %struct.GetBitContext, ptr %8, i32 0, i32 0
  %10 = load ptr, ptr %9, align 8, !tbaa !125
  %11 = load i32, ptr %3, align 4, !tbaa !11
  %12 = lshr i32 %11, 3
  %13 = zext i32 %12 to i64
  %14 = getelementptr inbounds nuw i8, ptr %10, i64 %13
  %15 = load i8, ptr %14, align 1, !tbaa !32
  store i8 %15, ptr %4, align 1, !tbaa !32
  %16 = load i32, ptr %3, align 4, !tbaa !11
  %17 = and i32 %16, 7
  %18 = load i8, ptr %4, align 1, !tbaa !32
  %19 = zext i8 %18 to i32
  %20 = shl i32 %19, %17
  %21 = trunc i32 %20 to i8
  store i8 %21, ptr %4, align 1, !tbaa !32
  %22 = load i8, ptr %4, align 1, !tbaa !32
  %23 = zext i8 %22 to i32
  %24 = ashr i32 %23, 7
  %25 = trunc i32 %24 to i8
  store i8 %25, ptr %4, align 1, !tbaa !32
  %26 = load ptr, ptr %2, align 8, !tbaa !111
  %27 = getelementptr inbounds nuw %struct.GetBitContext, ptr %26, i32 0, i32 2
  %28 = load i32, ptr %27, align 8, !tbaa !122
  %29 = load ptr, ptr %2, align 8, !tbaa !111
  %30 = getelementptr inbounds nuw %struct.GetBitContext, ptr %29, i32 0, i32 4
  %31 = load i32, ptr %30, align 8, !tbaa !124
  %32 = icmp slt i32 %28, %31
  br i1 %32, label %33, label %36

33:                                               ; preds = %1
  %34 = load i32, ptr %3, align 4, !tbaa !11
  %35 = add i32 %34, 1
  store i32 %35, ptr %3, align 4, !tbaa !11
  br label %36

36:                                               ; preds = %33, %1
  %37 = load i32, ptr %3, align 4, !tbaa !11
  %38 = load ptr, ptr %2, align 8, !tbaa !111
  %39 = getelementptr inbounds nuw %struct.GetBitContext, ptr %38, i32 0, i32 2
  store i32 %37, ptr %39, align 8, !tbaa !122
  %40 = load i8, ptr %4, align 1, !tbaa !32
  %41 = zext i8 %40 to i32
  call void @llvm.lifetime.end.p0(i64 1, ptr %4) #12
  call void @llvm.lifetime.end.p0(i64 4, ptr %3) #12
  ret i32 %41
}

; Function Attrs: inlinehint nounwind uwtable
define internal i32 @get_bits(ptr noundef %0, i32 noundef %1) #6 {
  %3 = alloca ptr, align 8
  %4 = alloca i32, align 4
  %5 = alloca i32, align 4
  %6 = alloca i32, align 4
  %7 = alloca i32, align 4
  %8 = alloca i32, align 4
  store ptr %0, ptr %3, align 8, !tbaa !111
  store i32 %1, ptr %4, align 4, !tbaa !11
  call void @llvm.lifetime.start.p0(i64 4, ptr %5) #12
  call void @llvm.lifetime.start.p0(i64 4, ptr %6) #12
  %9 = load ptr, ptr %3, align 8, !tbaa !111
  %10 = getelementptr inbounds nuw %struct.GetBitContext, ptr %9, i32 0, i32 2
  %11 = load i32, ptr %10, align 8, !tbaa !122
  store i32 %11, ptr %6, align 4, !tbaa !11
  call void @llvm.lifetime.start.p0(i64 4, ptr %7) #12
  call void @llvm.lifetime.start.p0(i64 4, ptr %8) #12
  %12 = load ptr, ptr %3, align 8, !tbaa !111
  %13 = getelementptr inbounds nuw %struct.GetBitContext, ptr %12, i32 0, i32 4
  %14 = load i32, ptr %13, align 8, !tbaa !124
  store i32 %14, ptr %8, align 4, !tbaa !11
  %15 = load ptr, ptr %3, align 8, !tbaa !111
  %16 = getelementptr inbounds nuw %struct.GetBitContext, ptr %15, i32 0, i32 0
  %17 = load ptr, ptr %16, align 8, !tbaa !125
  %18 = load i32, ptr %6, align 4, !tbaa !11
  %19 = lshr i32 %18, 3
  %20 = zext i32 %19 to i64
  %21 = getelementptr inbounds nuw i8, ptr %17, i64 %20
  %22 = load i32, ptr %21, align 1, !tbaa !32
  %23 = call i32 @av_bswap32(i32 noundef %22) #14
  %24 = load i32, ptr %6, align 4, !tbaa !11
  %25 = and i32 %24, 7
  %26 = shl i32 %23, %25
  %27 = lshr i32 %26, 0
  store i32 %27, ptr %7, align 4, !tbaa !11
  %28 = load i32, ptr %7, align 4, !tbaa !11
  %29 = load i32, ptr %4, align 4, !tbaa !11
  %30 = sub nsw i32 32, %29
  %31 = lshr i32 %28, %30
  store i32 %31, ptr %5, align 4, !tbaa !11
  %32 = load i32, ptr %8, align 4, !tbaa !11
  %33 = load i32, ptr %6, align 4, !tbaa !11
  %34 = load i32, ptr %4, align 4, !tbaa !11
  %35 = add i32 %33, %34
  %36 = icmp ugt i32 %32, %35
  br i1 %36, label %37, label %41

37:                                               ; preds = %2
  %38 = load i32, ptr %6, align 4, !tbaa !11
  %39 = load i32, ptr %4, align 4, !tbaa !11
  %40 = add i32 %38, %39
  br label %43

41:                                               ; preds = %2
  %42 = load i32, ptr %8, align 4, !tbaa !11
  br label %43

43:                                               ; preds = %41, %37
  %44 = phi i32 [ %40, %37 ], [ %42, %41 ]
  store i32 %44, ptr %6, align 4, !tbaa !11
  %45 = load i32, ptr %6, align 4, !tbaa !11
  %46 = load ptr, ptr %3, align 8, !tbaa !111
  %47 = getelementptr inbounds nuw %struct.GetBitContext, ptr %46, i32 0, i32 2
  store i32 %45, ptr %47, align 8, !tbaa !122
  %48 = load i32, ptr %5, align 4, !tbaa !11
  call void @llvm.lifetime.end.p0(i64 4, ptr %8) #12
  call void @llvm.lifetime.end.p0(i64 4, ptr %7) #12
  call void @llvm.lifetime.end.p0(i64 4, ptr %6) #12
  call void @llvm.lifetime.end.p0(i64 4, ptr %5) #12
  ret i32 %48
}

; Function Attrs: nounwind uwtable
define internal void @decode_ltp(ptr noundef %0, ptr noundef %1, ptr noundef %2, i8 noundef zeroext %3) #0 {
  %5 = alloca ptr, align 8
  %6 = alloca ptr, align 8
  %7 = alloca ptr, align 8
  %8 = alloca i8, align 1
  %9 = alloca i32, align 4
  store ptr %0, ptr %5, align 8, !tbaa !4
  store ptr %1, ptr %6, align 8, !tbaa !209
  store ptr %2, ptr %7, align 8, !tbaa !111
  store i8 %3, ptr %8, align 1, !tbaa !32
  call void @llvm.lifetime.start.p0(i64 4, ptr %9) #12
  %10 = load ptr, ptr %7, align 8, !tbaa !111
  %11 = call i32 @get_bits(ptr noundef %10, i32 noundef 11)
  %12 = trunc i32 %11 to i16
  %13 = load ptr, ptr %6, align 8, !tbaa !209
  %14 = getelementptr inbounds nuw %struct.LongTermPrediction, ptr %13, i32 0, i32 1
  store i16 %12, ptr %14, align 2, !tbaa !211
  %15 = load ptr, ptr %5, align 8, !tbaa !4
  %16 = getelementptr inbounds nuw %struct.AACDecContext, ptr %15, i32 0, i32 44
  %17 = load i32, ptr %16, align 4, !tbaa !105
  %18 = icmp ne i32 %17, 0
  br i1 %18, label %19, label %30

19:                                               ; preds = %4
  %20 = load ptr, ptr %7, align 8, !tbaa !111
  %21 = call i32 @get_bits(ptr noundef %20, i32 noundef 3)
  %22 = zext i32 %21 to i64
  %23 = getelementptr inbounds nuw [8 x float], ptr @ff_ltp_coef, i64 0, i64 %22
  %24 = load float, ptr %23, align 4, !tbaa !108
  %25 = fpext nsz float %24 to double
  %26 = call nsz double @llvm.fmuladd.f64(double %25, double 0x41D0000000000000, double 5.000000e-01)
  %27 = fptosi double %26 to i32
  %28 = load ptr, ptr %6, align 8, !tbaa !209
  %29 = getelementptr inbounds nuw %struct.LongTermPrediction, ptr %28, i32 0, i32 2
  store i32 %27, ptr %29, align 4, !tbaa !32
  br label %38

30:                                               ; preds = %4
  %31 = load ptr, ptr %7, align 8, !tbaa !111
  %32 = call i32 @get_bits(ptr noundef %31, i32 noundef 3)
  %33 = zext i32 %32 to i64
  %34 = getelementptr inbounds nuw [8 x float], ptr @ff_ltp_coef, i64 0, i64 %33
  %35 = load float, ptr %34, align 4, !tbaa !108
  %36 = load ptr, ptr %6, align 8, !tbaa !209
  %37 = getelementptr inbounds nuw %struct.LongTermPrediction, ptr %36, i32 0, i32 2
  store float %35, ptr %37, align 4, !tbaa !32
  br label %38

38:                                               ; preds = %30, %19
  store i32 0, ptr %9, align 4, !tbaa !11
  br label %39

39:                                               ; preds = %60, %38
  %40 = load i32, ptr %9, align 4, !tbaa !11
  %41 = load i8, ptr %8, align 1, !tbaa !32
  %42 = zext i8 %41 to i32
  %43 = icmp sgt i32 %42, 40
  br i1 %43, label %44, label %45

44:                                               ; preds = %39
  br label %48

45:                                               ; preds = %39
  %46 = load i8, ptr %8, align 1, !tbaa !32
  %47 = zext i8 %46 to i32
  br label %48

48:                                               ; preds = %45, %44
  %49 = phi i32 [ 40, %44 ], [ %47, %45 ]
  %50 = icmp slt i32 %40, %49
  br i1 %50, label %51, label %63

51:                                               ; preds = %48
  %52 = load ptr, ptr %7, align 8, !tbaa !111
  %53 = call i32 @get_bits1(ptr noundef %52)
  %54 = trunc i32 %53 to i8
  %55 = load ptr, ptr %6, align 8, !tbaa !209
  %56 = getelementptr inbounds nuw %struct.LongTermPrediction, ptr %55, i32 0, i32 3
  %57 = load i32, ptr %9, align 4, !tbaa !11
  %58 = sext i32 %57 to i64
  %59 = getelementptr inbounds [40 x i8], ptr %56, i64 0, i64 %58
  store i8 %54, ptr %59, align 1, !tbaa !32
  br label %60

60:                                               ; preds = %51
  %61 = load i32, ptr %9, align 4, !tbaa !11
  %62 = add nsw i32 %61, 1
  store i32 %62, ptr %9, align 4, !tbaa !11
  br label %39, !llvm.loop !212

63:                                               ; preds = %48
  call void @llvm.lifetime.end.p0(i64 4, ptr %9) #12
  ret void
}