; Function Attrs: nofree norecurse nosync nounwind memory(read, argmem: readwrite, inaccessiblemem: none) uwtable
define internal fastcc void @decode_ltp(i32 %.34884.val, ptr noundef writeonly captures(none) initializes((2, 8)) %0, ptr noundef captures(none) %1, i8 noundef zeroext %2) unnamed_addr #7 {
  %4 = getelementptr inbounds nuw i8, ptr %1, i64 16
  %5 = load i32, ptr %4, align 8, !tbaa !105
  %6 = getelementptr inbounds nuw i8, ptr %1, i64 24
  %7 = load i32, ptr %6, align 8, !tbaa !103
  %8 = load ptr, ptr %1, align 8, !tbaa !100
  %9 = lshr i32 %5, 3
  %10 = zext nneg i32 %9 to i64
  %11 = getelementptr inbounds nuw i8, ptr %8, i64 %10
  %12 = load i32, ptr %11, align 1, !tbaa !27
  %13 = tail call i32 @llvm.bswap.i32(i32 %12)
  %14 = and i32 %5, 7
  %15 = shl i32 %13, %14
  %16 = lshr i32 %15, 21
  %17 = add i32 %5, 11
  %18 = tail call i32 @llvm.umin.i32(i32 %7, i32 %17)
  store i32 %18, ptr %4, align 8, !tbaa !105
  %19 = trunc nuw nsw i32 %16 to i16
  %20 = getelementptr inbounds nuw i8, ptr %0, i64 2
  store i16 %19, ptr %20, align 2, !tbaa !180
  %.not = icmp eq i32 %.34884.val, 0
  %21 = lshr i32 %18, 3
  %22 = zext nneg i32 %21 to i64
  %23 = getelementptr inbounds nuw i8, ptr %8, i64 %22
  %24 = load i32, ptr %23, align 1, !tbaa !27
  %25 = tail call i32 @llvm.bswap.i32(i32 %24)
  %26 = and i32 %18, 7
  %27 = shl i32 %25, %26
  %28 = lshr i32 %27, 29
  %29 = add i32 %18, 3
  %30 = tail call i32 @llvm.umin.i32(i32 %7, i32 %29)
  %31 = zext nneg i32 %28 to i64
  %32 = getelementptr inbounds nuw [8 x float], ptr @ff_ltp_coef, i64 0, i64 %31
  br i1 %.not, label %38, label %33

33:                                               ; preds = %3
  %34 = load float, ptr %32, align 4, !tbaa !107
  %35 = fpext nsz float %34 to double
  %36 = tail call nsz double @llvm.fmuladd.f64(double %35, double 0x41D0000000000000, double 5.000000e-01)
  %37 = fptosi double %36 to i32
  br label %40

38:                                               ; preds = %3
  %39 = load i32, ptr %32, align 4, !tbaa !107
  br label %40

40:                                               ; preds = %38, %33
  %.sink = phi i32 [ %39, %38 ], [ %37, %33 ]
  store i32 %30, ptr %4, align 8, !tbaa !105
  %41 = getelementptr inbounds nuw i8, ptr %0, i64 4
  store i32 %.sink, ptr %41, align 4, !tbaa !27
  %.not2 = icmp eq i8 %2, 0
  br i1 %.not2, label %._crit_edge, label %.lr.ph

.lr.ph:                                           ; preds = %40
  %42 = tail call i8 @llvm.umin.i8(i8 %2, i8 40)
  %43 = getelementptr inbounds nuw i8, ptr %0, i64 8
  %wide.trip.count = zext nneg i8 %42 to i64
  br label %44

44:                                               ; preds = %.lr.ph, %44
  %indvars.iv = phi i64 [ 0, %.lr.ph ], [ %indvars.iv.next, %44 ]
  %45 = load i32, ptr %4, align 8, !tbaa !105
  %46 = load ptr, ptr %1, align 8, !tbaa !100
  %47 = lshr i32 %45, 3
  %48 = zext nneg i32 %47 to i64
  %49 = getelementptr inbounds nuw i8, ptr %46, i64 %48
  %50 = load i8, ptr %49, align 1, !tbaa !27
  %51 = load i32, ptr %6, align 8, !tbaa !103
  %52 = icmp slt i32 %45, %51
  %53 = zext i1 %52 to i32
  %spec.select.i = add i32 %45, %53
  %54 = zext i8 %50 to i32
  %55 = and i32 %45, 7
  %56 = shl nuw nsw i32 %54, %55
  store i32 %spec.select.i, ptr %4, align 8, !tbaa !105
  %57 = trunc i32 %56 to i8
  %58 = lshr i8 %57, 7
  %59 = getelementptr inbounds nuw [40 x i8], ptr %43, i64 0, i64 %indvars.iv
  store i8 %58, ptr %59, align 1, !tbaa !27
  %indvars.iv.next = add nuw nsw i64 %indvars.iv, 1
  %exitcond.not = icmp eq i64 %indvars.iv.next, %wide.trip.count
  br i1 %exitcond.not, label %._crit_edge, label %44, !llvm.loop !181

._crit_edge:                                      ; preds = %44, %40
  ret void
}